target datalayout = "e-m:e-p270:32:32-p271:32:32-p272:64:64-i64:64-i128:128-f80:128-n8:16:32:64-S128"
target triple = "x86_64-pc-linux-gnu"

%struct.expert_field = type { i32, i32 }
%struct._packet_info = type { ptr, ptr, i32, i32, %struct.nstime_t, %struct.nstime_t, %struct.nstime_t, i8, ptr, ptr, ptr, ptr, %struct._address, %struct._address, %struct._address, %struct._address, %struct._address, %struct._address, i32, ptr, i8, [3 x i8], %struct.anon, i32, i32, i32, i32, ptr, i8, ptr, ptr, i16, i16, i32, i32, i16, i32, i32, ptr, ptr, ptr, i8, i8, i16, i16, i16, i32, i16, i16, ptr, ptr, ptr, ptr, ptr, i32, i32 }
%struct.nstime_t = type { i64, i32 }
%struct._address = type { i32, i32, ptr, ptr }
%struct.anon = type { i8, [3 x i8] }

@ei_nas_5gs_extraneous_data = internal global %struct.expert_field zeroinitializer, align 4
@ei_nas_5gs_missing_mandatory_element = internal global %struct.expert_field zeroinitializer, align 4
@.str.1663 = private unnamed_addr constant [64 x i8] c"Missing Mandatory elements %s %s, rest of dissection is suspect\00", align 1
@.str.1696 = private unnamed_addr constant [18 x i8] c" - PDU session ID\00", align 1

; Function Attrs: null_pointer_is_valid sspstrong uwtable
define internal void @nas_5gs_mm_control_plane_service_req(ptr noundef %0, ptr noundef %1, ptr noundef %2, i32 noundef %3, i32 noundef %4) #0 {
  %6 = alloca ptr, align 8
  %7 = alloca ptr, align 8
  %8 = alloca ptr, align 8
  %9 = alloca i32, align 4
  %10 = alloca i32, align 4
  %11 = alloca i32, align 4
  %12 = alloca i32, align 4
  %13 = alloca i32, align 4
  %14 = alloca i32, align 4
  store ptr %0, ptr %6, align 8
  store ptr %1, ptr %7, align 8
  store ptr %2, ptr %8, align 8
  store i32 %3, ptr %9, align 4
  store i32 %4, ptr %10, align 4
  call void @llvm.lifetime.start.p0(i64 4, ptr %11) #11
  call void @llvm.lifetime.start.p0(i64 4, ptr %12) #11
  call void @llvm.lifetime.start.p0(i64 4, ptr %13) #11
  %15 = load i32, ptr %9, align 4
  store i32 %15, ptr %11, align 4
  %16 = load i32, ptr %10, align 4
  store i32 %16, ptr %13, align 4
  %17 = load ptr, ptr %8, align 8
  %18 = getelementptr inbounds nuw %struct._packet_info, ptr %17, i32 0, i32 46
  store i32 0, ptr %18, align 8
  %19 = load i32, ptr %13, align 4
  %20 = icmp sgt i32 %19, 0
  br i1 %20, label %21, label %36

21:                                               ; preds = %5
  %22 = load ptr, ptr %6, align 8
  %23 = load ptr, ptr %7, align 8
  %24 = load ptr, ptr %8, align 8
  %25 = load i32, ptr %11, align 4
  %26 = call zeroext i16 @elem_v_short(ptr noundef %22, ptr noundef %23, ptr noundef %24, i32 noundef 17, i32 noundef 23, i32 noundef %25, i32 noundef 1)
  %27 = load ptr, ptr %6, align 8
  %28 = load ptr, ptr %7, align 8
  %29 = load ptr, ptr %8, align 8
  %30 = load i32, ptr %11, align 4
  %31 = call zeroext i16 @elem_v_short(ptr noundef %27, ptr noundef %28, ptr noundef %29, i32 noundef 17, i32 noundef 40, i32 noundef %30, i32 noundef 2)
  %32 = load i32, ptr %11, align 4
  %33 = add i32 %32, 1
  store i32 %33, ptr %11, align 4
  %34 = load i32, ptr %13, align 4
  %35 = add i32 %34, -1
  store i32 %35, ptr %13, align 4
  br label %44

36:                                               ; preds = %5
  %37 = load ptr, ptr %7, align 8
  %38 = load ptr, ptr %8, align 8
  %39 = load ptr, ptr %6, align 8
  %40 = load i32, ptr %11, align 4
  %41 = call ptr @get_gsm_a_msg_string(i32 noundef 17, i32 noundef 23)
  %42 = call ptr @get_gsm_a_msg_string(i32 noundef 17, i32 noundef 40)
  %43 = call ptr (ptr, ptr, ptr, ptr, i32, i32, ptr, ...) @proto_tree_add_expert_format(ptr noundef %37, ptr noundef %38, ptr noundef @ei_nas_5gs_missing_mandatory_element, ptr noundef %39, i32 noundef %40, i32 noundef 0, ptr noundef @.str.1663, ptr noundef %41, ptr noundef %42)
  br label %44

44:                                               ; preds = %36, %21
  %45 = load i32, ptr %13, align 4
  %46 = icmp sle i32 %45, 0
  br i1 %46, label %47, label %48

47:                                               ; preds = %44
  store i32 1, ptr %14, align 4
  br label %297

48:                                               ; preds = %44
  %49 = load ptr, ptr %6, align 8
  %50 = load ptr, ptr %7, align 8
  %51 = load ptr, ptr %8, align 8
  %52 = load i32, ptr %11, align 4
  %53 = load i32, ptr %13, align 4
  %54 = call zeroext i16 @elem_tlv(ptr noundef %49, ptr noundef %50, ptr noundef %51, i8 noundef zeroext 111, i32 noundef 17, i32 noundef 21, i32 noundef %52, i32 noundef %53, ptr noundef null)
  %55 = zext i16 %54 to i32
  store i32 %55, ptr %12, align 4
  %56 = icmp ugt i32 %55, 0
  br i1 %56, label %57, label %64

57:                                               ; preds = %48
  %58 = load i32, ptr %12, align 4
  %59 = load i32, ptr %11, align 4
  %60 = add i32 %59, %58
  store i32 %60, ptr %11, align 4
  %61 = load i32, ptr %12, align 4
  %62 = load i32, ptr %13, align 4
  %63 = sub i32 %62, %61
  store i32 %63, ptr %13, align 4
  br label %64

64:                                               ; preds = %57, %48
  %65 = load i32, ptr %13, align 4
  %66 = icmp sle i32 %65, 0
  br i1 %66, label %67, label %68

67:                                               ; preds = %64
  store i32 1, ptr %14, align 4
  br label %297

68:                                               ; preds = %64
  %69 = load ptr, ptr %6, align 8
  %70 = load ptr, ptr %7, align 8
  %71 = load ptr, ptr %8, align 8
  %72 = load i32, ptr %11, align 4
  %73 = call zeroext i16 @elem_tv_short(ptr noundef %69, ptr noundef %70, ptr noundef %71, i8 noundef zeroext -128, i32 noundef 17, i32 noundef 50, i32 noundef %72, ptr noundef null)
  %74 = zext i16 %73 to i32
  store i32 %74, ptr %12, align 4
  %75 = icmp ugt i32 %74, 0
  br i1 %75, label %76, label %83

76:                                               ; preds = %68
  %77 = load i32, ptr %12, align 4
  %78 = load i32, ptr %11, align 4
  %79 = add i32 %78, %77
  store i32 %79, ptr %11, align 4
  %80 = load i32, ptr %12, align 4
  %81 = load i32, ptr %13, align 4
  %82 = sub i32 %81, %80
  store i32 %82, ptr %13, align 4
  br label %83

83:                                               ; preds = %76, %68
  %84 = load i32, ptr %13, align 4
  %85 = icmp sle i32 %84, 0
  br i1 %85, label %86, label %87

86:                                               ; preds = %83
  store i32 1, ptr %14, align 4
  br label %297

87:                                               ; preds = %83
  %88 = load ptr, ptr %6, align 8
  %89 = load ptr, ptr %7, align 8
  %90 = load ptr, ptr %8, align 8
  %91 = load i32, ptr %11, align 4
  %92 = load i32, ptr %13, align 4
  %93 = call zeroext i16 @elem_tlv_e(ptr noundef %88, ptr noundef %89, ptr noundef %90, i8 noundef zeroext 123, i32 noundef 17, i32 noundef 49, i32 noundef %91, i32 noundef %92, ptr noundef null)
  %94 = zext i16 %93 to i32
  store i32 %94, ptr %12, align 4
  %95 = icmp ugt i32 %94, 0
  br i1 %95, label %96, label %103

96:                                               ; preds = %87
  %97 = load i32, ptr %12, align 4
  %98 = load i32, ptr %11, align 4
  %99 = add i32 %98, %97
  store i32 %99, ptr %11, align 4
  %100 = load i32, ptr %12, align 4
  %101 = load i32, ptr %13, align 4
  %102 = sub i32 %101, %100
  store i32 %102, ptr %13, align 4
  br label %103

103:                                              ; preds = %96, %87
  %104 = load i32, ptr %13, align 4
  %105 = icmp sle i32 %104, 0
  br i1 %105, label %106, label %107

106:                                              ; preds = %103
  store i32 1, ptr %14, align 4
  br label %297

107:                                              ; preds = %103
  %108 = load ptr, ptr %6, align 8
  %109 = load ptr, ptr %7, align 8
  %110 = load ptr, ptr %8, align 8
  %111 = load i32, ptr %11, align 4
  %112 = call zeroext i16 @elem_tv(ptr noundef %108, ptr noundef %109, ptr noundef %110, i8 noundef zeroext 18, i32 noundef 17, i32 noundef 51, i32 noundef %111, ptr noundef @.str.1696)
  %113 = zext i16 %112 to i32
  store i32 %113, ptr %12, align 4
  %114 = icmp ugt i32 %113, 0
  br i1 %114, label %115, label %122

115:                                              ; preds = %107
  %116 = load i32, ptr %12, align 4
  %117 = load i32, ptr %11, align 4
  %118 = add i32 %117, %116
  store i32 %118, ptr %11, align 4
  %119 = load i32, ptr %12, align 4
  %120 = load i32, ptr %13, align 4
  %121 = sub i32 %120, %119
  store i32 %121, ptr %13, align 4
  br label %122

122:                                              ; preds = %115, %107
  %123 = load i32, ptr %13, align 4
  %124 = icmp sle i32 %123, 0
  br i1 %124, label %125, label %126

125:                                              ; preds = %122
  store i32 1, ptr %14, align 4
  br label %297

126:                                              ; preds = %122
  %127 = load ptr, ptr %6, align 8
  %128 = load ptr, ptr %7, align 8
  %129 = load ptr, ptr %8, align 8
  %130 = load i32, ptr %11, align 4
  %131 = load i32, ptr %13, align 4
  %132 = call zeroext i16 @elem_tlv(ptr noundef %127, ptr noundef %128, ptr noundef %129, i8 noundef zeroext 80, i32 noundef 17, i32 noundef 54, i32 noundef %130, i32 noundef %131, ptr noundef null)
  %133 = zext i16 %132 to i32
  store i32 %133, ptr %12, align 4
  %134 = icmp ugt i32 %133, 0
  br i1 %134, label %135, label %142

135:                                              ; preds = %126
  %136 = load i32, ptr %12, align 4
  %137 = load i32, ptr %11, align 4
  %138 = add i32 %137, %136
  store i32 %138, ptr %11, align 4
  %139 = load i32, ptr %12, align 4
  %140 = load i32, ptr %13, align 4
  %141 = sub i32 %140, %139
  store i32 %141, ptr %13, align 4
  br label %142

142:                                              ; preds = %135, %126
  %143 = load i32, ptr %13, align 4
  %144 = icmp sle i32 %143, 0
  br i1 %144, label %145, label %146

145:                                              ; preds = %142
  store i32 1, ptr %14, align 4
  br label %297

146:                                              ; preds = %142
  %147 = load ptr, ptr %6, align 8
  %148 = load ptr, ptr %7, align 8
  %149 = load ptr, ptr %8, align 8
  %150 = load i32, ptr %11, align 4
  %151 = call zeroext i16 @elem_tv_short(ptr noundef %147, ptr noundef %148, ptr noundef %149, i8 noundef zeroext -16, i32 noundef 11, i32 noundef 27, i32 noundef %150, ptr noundef null)
  %152 = zext i16 %151 to i32
  store i32 %152, ptr %12, align 4
  %153 = icmp ugt i32 %152, 0
  br i1 %153, label %154, label %161

154:                                              ; preds = %146
  %155 = load i32, ptr %12, align 4
  %156 = load i32, ptr %11, align 4
  %157 = add i32 %156, %155
  store i32 %157, ptr %11, align 4
  %158 = load i32, ptr %12, align 4
  %159 = load i32, ptr %13, align 4
  %160 = sub i32 %159, %158
  store i32 %160, ptr %13, align 4
  br label %161

161:                                              ; preds = %154, %146
  %162 = load i32, ptr %13, align 4
  %163 = icmp sle i32 %162, 0
  br i1 %163, label %164, label %165

164:                                              ; preds = %161
  store i32 1, ptr %14, align 4
  br label %297

165:                                              ; preds = %161
  %166 = load ptr, ptr %6, align 8
  %167 = load ptr, ptr %7, align 8
  %168 = load ptr, ptr %8, align 8
  %169 = load i32, ptr %11, align 4
  %170 = load i32, ptr %13, align 4
  %171 = call zeroext i16 @elem_tlv(ptr noundef %166, ptr noundef %167, ptr noundef %168, i8 noundef zeroext 64, i32 noundef 17, i32 noundef 72, i32 noundef %169, i32 noundef %170, ptr noundef null)
  %172 = zext i16 %171 to i32
  store i32 %172, ptr %12, align 4
  %173 = icmp ugt i32 %172, 0
  br i1 %173, label %174, label %181

174:                                              ; preds = %165
  %175 = load i32, ptr %12, align 4
  %176 = load i32, ptr %11, align 4
  %177 = add i32 %176, %175
  store i32 %177, ptr %11, align 4
  %178 = load i32, ptr %12, align 4
  %179 = load i32, ptr %13, align 4
  %180 = sub i32 %179, %178
  store i32 %180, ptr %13, align 4
  br label %181

181:                                              ; preds = %174, %165
  %182 = load i32, ptr %13, align 4
  %183 = icmp sle i32 %182, 0
  br i1 %183, label %184, label %185

184:                                              ; preds = %181
  store i32 1, ptr %14, align 4
  br label %297

185:                                              ; preds = %181
  %186 = load ptr, ptr %6, align 8
  %187 = load ptr, ptr %7, align 8
  %188 = load ptr, ptr %8, align 8
  %189 = load i32, ptr %11, align 4
  %190 = load i32, ptr %13, align 4
  %191 = call zeroext i16 @elem_tlv_e(ptr noundef %186, ptr noundef %187, ptr noundef %188, i8 noundef zeroext 113, i32 noundef 17, i32 noundef 41, i32 noundef %189, i32 noundef %190, ptr noundef null)
  %192 = zext i16 %191 to i32
  store i32 %192, ptr %12, align 4
  %193 = icmp ugt i32 %192, 0
  br i1 %193, label %194, label %201

194:                                              ; preds = %185
  %195 = load i32, ptr %12, align 4
  %196 = load i32, ptr %11, align 4
  %197 = add i32 %196, %195
  store i32 %197, ptr %11, align 4
  %198 = load i32, ptr %12, align 4
  %199 = load i32, ptr %13, align 4
  %200 = sub i32 %199, %198
  store i32 %200, ptr %13, align 4
  br label %201

201:                                              ; preds = %194, %185
  %202 = load i32, ptr %13, align 4
  %203 = icmp sle i32 %202, 0
  br i1 %203, label %204, label %205

204:                                              ; preds = %201
  store i32 1, ptr %14, align 4
  br label %297

205:                                              ; preds = %201
  %206 = load ptr, ptr %6, align 8
  %207 = load ptr, ptr %7, align 8
  %208 = load ptr, ptr %8, align 8
  %209 = load i32, ptr %11, align 4
  %210 = load i32, ptr %13, align 4
  %211 = call zeroext i16 @elem_tlv_e(ptr noundef %206, ptr noundef %207, ptr noundef %208, i8 noundef zeroext 113, i32 noundef 16, i32 noundef 0, i32 noundef %209, i32 noundef %210, ptr noundef null)
  %212 = zext i16 %211 to i32
  store i32 %212, ptr %12, align 4
  %213 = icmp ugt i32 %212, 0
  br i1 %213, label %214, label %221

214:                                              ; preds = %205
  %215 = load i32, ptr %12, align 4
  %216 = load i32, ptr %11, align 4
  %217 = add i32 %216, %215
  store i32 %217, ptr %11, align 4
  %218 = load i32, ptr %12, align 4
  %219 = load i32, ptr %13, align 4
  %220 = sub i32 %219, %218
  store i32 %220, ptr %13, align 4
  br label %221

221:                                              ; preds = %214, %205
  %222 = load i32, ptr %13, align 4
  %223 = icmp sle i32 %222, 0
  br i1 %223, label %224, label %225

224:                                              ; preds = %221
  store i32 1, ptr %14, align 4
  br label %297

225:                                              ; preds = %221
  %226 = load ptr, ptr %6, align 8
  %227 = load ptr, ptr %7, align 8
  %228 = load ptr, ptr %8, align 8
  %229 = load i32, ptr %11, align 4
  %230 = load i32, ptr %13, align 4
  %231 = call zeroext i16 @elem_tlv(ptr noundef %226, ptr noundef %227, ptr noundef %228, i8 noundef zeroext 37, i32 noundef 17, i32 noundef 14, i32 noundef %229, i32 noundef %230, ptr noundef null)
  %232 = zext i16 %231 to i32
  store i32 %232, ptr %12, align 4
  %233 = icmp ugt i32 %232, 0
  br i1 %233, label %234, label %241

234:                                              ; preds = %225
  %235 = load i32, ptr %12, align 4
  %236 = load i32, ptr %11, align 4
  %237 = add i32 %236, %235
  store i32 %237, ptr %11, align 4
  %238 = load i32, ptr %12, align 4
  %239 = load i32, ptr %13, align 4
  %240 = sub i32 %239, %238
  store i32 %240, ptr %13, align 4
  br label %241

241:                                              ; preds = %234, %225
  %242 = load i32, ptr %13, align 4
  %243 = icmp sle i32 %242, 0
  br i1 %243, label %244, label %245

244:                                              ; preds = %241
  store i32 1, ptr %14, align 4
  br label %297

245:                                              ; preds = %241
  %246 = load ptr, ptr %6, align 8
  %247 = load ptr, ptr %7, align 8
  %248 = load ptr, ptr %8, align 8
  %249 = load i32, ptr %11, align 4
  %250 = load i32, ptr %13, align 4
  %251 = call zeroext i16 @elem_tlv(ptr noundef %246, ptr noundef %247, ptr noundef %248, i8 noundef zeroext 41, i32 noundef 10, i32 noundef 74, i32 noundef %249, i32 noundef %250, ptr noundef null)
  %252 = zext i16 %251 to i32
  store i32 %252, ptr %12, align 4
  %253 = icmp ugt i32 %252, 0
  br i1 %253, label %254, label %261

254:                                              ; preds = %245
  %255 = load i32, ptr %12, align 4
  %256 = load i32, ptr %11, align 4
  %257 = add i32 %256, %255
  store i32 %257, ptr %11, align 4
  %258 = load i32, ptr %12, align 4
  %259 = load i32, ptr %13, align 4
  %260 = sub i32 %259, %258
  store i32 %260, ptr %13, align 4
  br label %261

261:                                              ; preds = %254, %245
  %262 = load i32, ptr %13, align 4
  %263 = icmp sle i32 %262, 0
  br i1 %263, label %264, label %265

264:                                              ; preds = %261
  store i32 1, ptr %14, align 4
  br label %297

265:                                              ; preds = %261
  %266 = load ptr, ptr %6, align 8
  %267 = load ptr, ptr %7, align 8
  %268 = load ptr, ptr %8, align 8
  %269 = load i32, ptr %11, align 4
  %270 = load i32, ptr %13, align 4
  %271 = call zeroext i16 @elem_tlv(ptr noundef %266, ptr noundef %267, ptr noundef %268, i8 noundef zeroext 40, i32 noundef 17, i32 noundef 82, i32 noundef %269, i32 noundef %270, ptr noundef null)
  %272 = zext i16 %271 to i32
  store i32 %272, ptr %12, align 4
  %273 = icmp ugt i32 %272, 0
  br i1 %273, label %274, label %281

274:                                              ; preds = %265
  %275 = load i32, ptr %12, align 4
  %276 = load i32, ptr %11, align 4
  %277 = add i32 %276, %275
  store i32 %277, ptr %11, align 4
  %278 = load i32, ptr %12, align 4
  %279 = load i32, ptr %13, align 4
  %280 = sub i32 %279, %278
  store i32 %280, ptr %13, align 4
  br label %281

281:                                              ; preds = %274, %265
  %282 = load i32, ptr %13, align 4
  %283 = icmp ugt i32 %282, 0
  br i1 %283, label %284, label %296

284:                                              ; preds = %281
  %285 = load ptr, ptr %7, align 8
  %286 = load ptr, ptr %8, align 8
  %287 = load ptr, ptr %6, align 8
  %288 = load i32, ptr %11, align 4
  %289 = load i32, ptr %13, align 4
  %290 = sub i32 %289, 0
  %291 = call ptr @proto_tree_add_expert(ptr noundef %285, ptr noundef %286, ptr noundef @ei_nas_5gs_extraneous_data, ptr noundef %287, i32 noundef %288, i32 noundef %290)
  %292 = load i32, ptr %13, align 4
  %293 = sub i32 %292, 0
  %294 = load i32, ptr %11, align 4
  %295 = add i32 %294, %293
  store i32 %295, ptr %11, align 4
  br label %296

296:                                              ; preds = %284, %281
  store i32 0, ptr %14, align 4
  br label %297

297:                                              ; preds = %296, %264, %244, %224, %204, %184, %164, %145, %125, %106, %86, %67, %47
  call void @llvm.lifetime.end.p0(i64 4, ptr %13) #11
  call void @llvm.lifetime.end.p0(i64 4, ptr %12) #11
  call void @llvm.lifetime.end.p0(i64 4, ptr %11) #11
  %298 = load i32, ptr %14, align 4
  switch i32 %298, label %300 [
    i32 0, label %299
    i32 1, label %299
  ]

299:                                              ; preds = %297, %297
  ret void

300:                                              ; preds = %297
  unreachable
}