; Function Attrs: null_pointer_is_valid sspstrong uwtable
define internal void @nas_5gs_mm_control_plane_service_req(ptr noundef %0, ptr noundef %1, ptr noundef initializes((384, 388)) %2, i32 noundef %3, i32 noundef %4) #0 {
  %6 = getelementptr inbounds nuw i8, ptr %2, i64 384
  store i32 0, ptr %6, align 8
  %7 = icmp sgt i32 %4, 0
  br i1 %7, label %11, label %.thread

.thread:                                          ; preds = %5
  %8 = tail call ptr @get_gsm_a_msg_string(i32 noundef 17, i32 noundef 23)
  %9 = tail call ptr @get_gsm_a_msg_string(i32 noundef 17, i32 noundef 40)
  %10 = tail call ptr (ptr, ptr, ptr, ptr, i32, i32, ptr, ...) @proto_tree_add_expert_format(ptr noundef %1, ptr noundef %2, ptr noundef nonnull @ei_nas_5gs_missing_mandatory_element, ptr noundef %0, i32 noundef %3, i32 noundef 0, ptr noundef nonnull @.str.1663, ptr noundef %8, ptr noundef %9)
  br label %90

11:                                               ; preds = %5
  %12 = tail call zeroext i16 @elem_v_short(ptr noundef %0, ptr noundef %1, ptr noundef %2, i32 noundef 17, i32 noundef 23, i32 noundef %3, i32 noundef 1)
  %13 = tail call zeroext i16 @elem_v_short(ptr noundef %0, ptr noundef %1, ptr noundef %2, i32 noundef 17, i32 noundef 40, i32 noundef %3, i32 noundef 2)
  %14 = add nsw i32 %4, -1
  %15 = icmp eq i32 %14, 0
  br i1 %15, label %90, label %16

16:                                               ; preds = %11
  %17 = add i32 %3, 1
  %18 = tail call zeroext i16 @elem_tlv(ptr noundef %0, ptr noundef %1, ptr noundef %2, i8 noundef zeroext 111, i32 noundef 17, i32 noundef 21, i32 noundef %17, i32 noundef %14, ptr noundef null)
  %19 = zext i16 %18 to i32
  %20 = sub nsw i32 %14, %19
  %21 = icmp slt i32 %20, 1
  br i1 %21, label %90, label %22

22:                                               ; preds = %16
  %23 = add i32 %17, %19
  %24 = tail call zeroext i16 @elem_tv_short(ptr noundef %0, ptr noundef %1, ptr noundef %2, i8 noundef zeroext -128, i32 noundef 17, i32 noundef 50, i32 noundef %23, ptr noundef null)
  %25 = zext i16 %24 to i32
  %26 = sub nsw i32 %20, %25
  %27 = icmp slt i32 %26, 1
  br i1 %27, label %90, label %28

28:                                               ; preds = %22
  %29 = add i32 %23, %25
  %30 = tail call zeroext i16 @elem_tlv_e(ptr noundef %0, ptr noundef %1, ptr noundef %2, i8 noundef zeroext 123, i32 noundef 17, i32 noundef 49, i32 noundef %29, i32 noundef %26, ptr noundef null)
  %31 = zext i16 %30 to i32
  %32 = sub nsw i32 %26, %31
  %33 = icmp slt i32 %32, 1
  br i1 %33, label %90, label %34

34:                                               ; preds = %28
  %35 = add i32 %29, %31
  %36 = tail call zeroext i16 @elem_tv(ptr noundef %0, ptr noundef %1, ptr noundef %2, i8 noundef zeroext 18, i32 noundef 17, i32 noundef 51, i32 noundef %35, ptr noundef nonnull @.str.1696)
  %37 = zext i16 %36 to i32
  %38 = sub nsw i32 %32, %37
  %39 = icmp slt i32 %38, 1
  br i1 %39, label %90, label %40

40:                                               ; preds = %34
  %41 = add i32 %35, %37
  %42 = tail call zeroext i16 @elem_tlv(ptr noundef %0, ptr noundef %1, ptr noundef %2, i8 noundef zeroext 80, i32 noundef 17, i32 noundef 54, i32 noundef %41, i32 noundef %38, ptr noundef null)
  %43 = zext i16 %42 to i32
  %44 = sub nsw i32 %38, %43
  %45 = icmp slt i32 %44, 1
  br i1 %45, label %90, label %46

46:                                               ; preds = %40
  %47 = add i32 %41, %43
  %48 = tail call zeroext i16 @elem_tv_short(ptr noundef %0, ptr noundef %1, ptr noundef %2, i8 noundef zeroext -16, i32 noundef 11, i32 noundef 27, i32 noundef %47, ptr noundef null)
  %49 = zext i16 %48 to i32
  %50 = sub nsw i32 %44, %49
  %51 = icmp slt i32 %50, 1
  br i1 %51, label %90, label %52

52:                                               ; preds = %46
  %53 = add i32 %47, %49
  %54 = tail call zeroext i16 @elem_tlv(ptr noundef %0, ptr noundef %1, ptr noundef %2, i8 noundef zeroext 64, i32 noundef 17, i32 noundef 72, i32 noundef %53, i32 noundef %50, ptr noundef null)
  %55 = zext i16 %54 to i32
  %56 = sub nsw i32 %50, %55
  %57 = icmp slt i32 %56, 1
  br i1 %57, label %90, label %58

58:                                               ; preds = %52
  %59 = add i32 %53, %55
  %60 = tail call zeroext i16 @elem_tlv_e(ptr noundef %0, ptr noundef %1, ptr noundef %2, i8 noundef zeroext 113, i32 noundef 17, i32 noundef 41, i32 noundef %59, i32 noundef %56, ptr noundef null)
  %61 = zext i16 %60 to i32
  %62 = sub nsw i32 %56, %61
  %63 = icmp slt i32 %62, 1
  br i1 %63, label %90, label %64

64:                                               ; preds = %58
  %65 = add i32 %59, %61
  %66 = tail call zeroext i16 @elem_tlv_e(ptr noundef %0, ptr noundef %1, ptr noundef %2, i8 noundef zeroext 113, i32 noundef 16, i32 noundef 0, i32 noundef %65, i32 noundef %62, ptr noundef null)
  %67 = zext i16 %66 to i32
  %68 = sub nsw i32 %62, %67
  %69 = icmp slt i32 %68, 1
  br i1 %69, label %90, label %70

70:                                               ; preds = %64
  %71 = add i32 %65, %67
  %72 = tail call zeroext i16 @elem_tlv(ptr noundef %0, ptr noundef %1, ptr noundef %2, i8 noundef zeroext 37, i32 noundef 17, i32 noundef 14, i32 noundef %71, i32 noundef %68, ptr noundef null)
  %73 = zext i16 %72 to i32
  %74 = sub nsw i32 %68, %73
  %75 = icmp slt i32 %74, 1
  br i1 %75, label %90, label %76

76:                                               ; preds = %70
  %77 = add i32 %71, %73
  %78 = tail call zeroext i16 @elem_tlv(ptr noundef %0, ptr noundef %1, ptr noundef %2, i8 noundef zeroext 41, i32 noundef 10, i32 noundef 74, i32 noundef %77, i32 noundef %74, ptr noundef null)
  %79 = zext i16 %78 to i32
  %80 = sub nsw i32 %74, %79
  %81 = icmp slt i32 %80, 1
  br i1 %81, label %90, label %82

82:                                               ; preds = %76
  %83 = add i32 %77, %79
  %84 = tail call zeroext i16 @elem_tlv(ptr noundef %0, ptr noundef %1, ptr noundef %2, i8 noundef zeroext 40, i32 noundef 17, i32 noundef 82, i32 noundef %83, i32 noundef %80, ptr noundef null)
  %85 = zext i16 %84 to i32
  %.not180 = icmp eq i32 %80, %85
  br i1 %.not180, label %90, label %86

86:                                               ; preds = %82
  %87 = sub nsw i32 %80, %85
  %88 = add i32 %83, %85
  %89 = tail call ptr @proto_tree_add_expert(ptr noundef %1, ptr noundef %2, ptr noundef nonnull @ei_nas_5gs_extraneous_data, ptr noundef %0, i32 noundef %88, i32 noundef %87)
  br label %90

90:                                               ; preds = %.thread, %82, %86, %76, %70, %64, %58, %52, %46, %40, %34, %28, %22, %16, %11
  ret void
}